target datalayout = "e-m:e-p270:32:32-p271:32:32-p272:64:64-i64:64-i128:128-f80:128-n8:16:32:64-S128"
target triple = "x86_64-unknown-linux-gnu"

%"class.Assimp::GenFaceNormalsProcess" = type <{ %"class.Assimp::BaseProcess", i8, i8, i8, [5 x i8] }>
%"class.Assimp::BaseProcess" = type { ptr, ptr, ptr }

; Function Attrs: mustprogress nounwind uwtable
define hidden noundef zeroext i1 @_ZNK6Assimp21GenFaceNormalsProcess8IsActiveEj(ptr noundef nonnull align 8 dereferenceable(27) %this, i32 noundef %pFlags) unnamed_addr #0 align 2 {
entry:
  %this.addr = alloca ptr, align 8
  %pFlags.addr = alloca i32, align 4
  store ptr %this, ptr %this.addr, align 8
  store i32 %pFlags, ptr %pFlags.addr, align 4
  %this1 = load ptr, ptr %this.addr, align 8
  %0 = load i32, ptr %pFlags.addr, align 4
  %and = and i32 %0, 536870912
  %cmp = icmp ne i32 %and, 0
  %force_ = getelementptr inbounds %"class.Assimp::GenFaceNormalsProcess", ptr %this1, i32 0, i32 1
  %frombool = zext i1 %cmp to i8
  store i8 %frombool, ptr %force_, align 8
  %1 = load i32, ptr %pFlags.addr, align 4
  %and2 = and i32 %1, 16777216
  %cmp3 = icmp ne i32 %and2, 0
  %flippedWindingOrder_ = getelementptr inbounds %"class.Assimp::GenFaceNormalsProcess", ptr %this1, i32 0, i32 2
  %frombool4 = zext i1 %cmp3 to i8
  store i8 %frombool4, ptr %flippedWindingOrder_, align 1
  %2 = load i32, ptr %pFlags.addr, align 4
  %and5 = and i32 %2, 4
  %cmp6 = icmp ne i32 %and5, 0
  %leftHanded_ = getelementptr inbounds %"class.Assimp::GenFaceNormalsProcess", ptr %this1, i32 0, i32 3
  %frombool7 = zext i1 %cmp6 to i8
  store i8 %frombool7, ptr %leftHanded_, align 2
  %3 = load i32, ptr %pFlags.addr, align 4
  %and8 = and i32 %3, 32
  %cmp9 = icmp ne i32 %and8, 0
  ret i1 %cmp9
}