; Function Attrs: mustprogress nofree norecurse nosync nounwind willreturn memory(argmem: write) uwtable
define hidden noundef zeroext i1 @_ZNK6Assimp21GenFaceNormalsProcess8IsActiveEj(ptr nocapture noundef nonnull writeonly align 8 dereferenceable(27) %this, i32 noundef %pFlags) unnamed_addr #0 align 2 {
entry:
  %force_ = getelementptr inbounds i8, ptr %this, i64 24
  %and = lshr i32 %pFlags, 29
  %0 = trunc i32 %and to i8
  %frombool = and i8 %0, 1
  store i8 %frombool, ptr %force_, align 8
  %flippedWindingOrder_ = getelementptr inbounds i8, ptr %this, i64 25
  %and2 = lshr i32 %pFlags, 24
  %1 = trunc i32 %and2 to i8
  %frombool4 = and i8 %1, 1
  store i8 %frombool4, ptr %flippedWindingOrder_, align 1
  %leftHanded_ = getelementptr inbounds i8, ptr %this, i64 26
  %2 = trunc i32 %pFlags to i8
  %3 = lshr i8 %2, 2
  %frombool7 = and i8 %3, 1
  store i8 %frombool7, ptr %leftHanded_, align 2
  %and8 = and i32 %pFlags, 32
  %cmp9 = icmp ne i32 %and8, 0
  ret i1 %cmp9
}